; Function Attrs: mustprogress ssp uwtable
define noundef zeroext i1 @_ZN6open3d7utility16IJsonConvertible24EigenVector4dToJsonArrayERKN5Eigen6MatrixIdLi4ELi1ELi0ELi4ELi1EEERN4Json5ValueE(ptr noundef nonnull readonly align 16 captures(none) dereferenceable(32) %0, ptr noundef nonnull align 8 dereferenceable(40) %1) local_unnamed_addr #1 align 2 personality ptr @__gxx_personality_v0 {
  %3 = alloca %"class.Json::Value", align 8
  %4 = alloca %"class.Json::Value", align 8
  %5 = alloca %"class.Json::Value", align 8
  %6 = alloca %"class.Json::Value", align 8
  tail call void @_ZN4Json5Value5clearEv(ptr noundef nonnull align 8 dereferenceable(40) %1)
  call void @llvm.lifetime.start.p0(i64 40, ptr nonnull %3) #29
  %7 = load double, ptr %0, align 16, !tbaa !600
  call void @_ZN4Json5ValueC1Ed(ptr noundef nonnull align 8 dereferenceable(40) %3, double noundef %7)
  %8 = invoke noundef nonnull align 8 dereferenceable(40) ptr @_ZN4Json5Value6appendEOS0_(ptr noundef nonnull align 8 dereferenceable(40) %1, ptr noundef nonnull align 8 dereferenceable(40) %3)
          to label %9 unwind label %22

9:                                                ; preds = %2
  call void @_ZN4Json5ValueD1Ev(ptr noundef nonnull align 8 dereferenceable(40) %3) #29
  call void @llvm.lifetime.end.p0(i64 40, ptr nonnull %3) #29
  call void @llvm.lifetime.start.p0(i64 40, ptr nonnull %4) #29
  %10 = getelementptr inbounds nuw i8, ptr %0, i64 8
  %11 = load double, ptr %10, align 8, !tbaa !600
  call void @_ZN4Json5ValueC1Ed(ptr noundef nonnull align 8 dereferenceable(40) %4, double noundef %11)
  %12 = invoke noundef nonnull align 8 dereferenceable(40) ptr @_ZN4Json5Value6appendEOS0_(ptr noundef nonnull align 8 dereferenceable(40) %1, ptr noundef nonnull align 8 dereferenceable(40) %4)
          to label %13 unwind label %24

13:                                               ; preds = %9
  call void @_ZN4Json5ValueD1Ev(ptr noundef nonnull align 8 dereferenceable(40) %4) #29
  call void @llvm.lifetime.end.p0(i64 40, ptr nonnull %4) #29
  call void @llvm.lifetime.start.p0(i64 40, ptr nonnull %5) #29
  %14 = getelementptr inbounds nuw i8, ptr %0, i64 16
  %15 = load double, ptr %14, align 16, !tbaa !600
  call void @_ZN4Json5ValueC1Ed(ptr noundef nonnull align 8 dereferenceable(40) %5, double noundef %15)
  %16 = invoke noundef nonnull align 8 dereferenceable(40) ptr @_ZN4Json5Value6appendEOS0_(ptr noundef nonnull align 8 dereferenceable(40) %1, ptr noundef nonnull align 8 dereferenceable(40) %5)
          to label %17 unwind label %26

17:                                               ; preds = %13
  call void @_ZN4Json5ValueD1Ev(ptr noundef nonnull align 8 dereferenceable(40) %5) #29
  call void @llvm.lifetime.end.p0(i64 40, ptr nonnull %5) #29
  call void @llvm.lifetime.start.p0(i64 40, ptr nonnull %6) #29
  %18 = getelementptr inbounds nuw i8, ptr %0, i64 24
  %19 = load double, ptr %18, align 8, !tbaa !600
  call void @_ZN4Json5ValueC1Ed(ptr noundef nonnull align 8 dereferenceable(40) %6, double noundef %19)
  %20 = invoke noundef nonnull align 8 dereferenceable(40) ptr @_ZN4Json5Value6appendEOS0_(ptr noundef nonnull align 8 dereferenceable(40) %1, ptr noundef nonnull align 8 dereferenceable(40) %6)
          to label %21 unwind label %28

21:                                               ; preds = %17
  call void @_ZN4Json5ValueD1Ev(ptr noundef nonnull align 8 dereferenceable(40) %6) #29
  call void @llvm.lifetime.end.p0(i64 40, ptr nonnull %6) #29
  ret i1 true

22:                                               ; preds = %2
  %23 = landingpad { ptr, i32 }
          cleanup
  call void @_ZN4Json5ValueD1Ev(ptr noundef nonnull align 8 dereferenceable(40) %3) #29
  call void @llvm.lifetime.end.p0(i64 40, ptr nonnull %3) #29
  br label %30

24:                                               ; preds = %9
  %25 = landingpad { ptr, i32 }
          cleanup
  call void @_ZN4Json5ValueD1Ev(ptr noundef nonnull align 8 dereferenceable(40) %4) #29
  call void @llvm.lifetime.end.p0(i64 40, ptr nonnull %4) #29
  br label %30

26:                                               ; preds = %13
  %27 = landingpad { ptr, i32 }
          cleanup
  call void @_ZN4Json5ValueD1Ev(ptr noundef nonnull align 8 dereferenceable(40) %5) #29
  call void @llvm.lifetime.end.p0(i64 40, ptr nonnull %5) #29
  br label %30

28:                                               ; preds = %17
  %29 = landingpad { ptr, i32 }
          cleanup
  call void @_ZN4Json5ValueD1Ev(ptr noundef nonnull align 8 dereferenceable(40) %6) #29
  call void @llvm.lifetime.end.p0(i64 40, ptr nonnull %6) #29
  br label %30

30:                                               ; preds = %28, %26, %24, %22
  %.pn = phi { ptr, i32 } [ %29, %28 ], [ %27, %26 ], [ %25, %24 ], [ %23, %22 ]
  resume { ptr, i32 } %.pn
}